target datalayout = "e-m:e-p270:32:32-p271:32:32-p272:64:64-i64:64-i128:128-f80:128-n8:16:32:64-S128"
target triple = "x86_64-unknown-linux-gnu"

%"class.YAML::DeepRecursion" = type <{ %"class.YAML::ParserException", i32, [4 x i8] }>
%"class.YAML::ParserException" = type { %"class.YAML::Exception" }
%"class.YAML::Exception" = type { %"class.std::runtime_error", %"struct.YAML::Mark", %"class.std::__cxx11::basic_string" }
%"class.std::runtime_error" = type { %"class.std::exception", %"struct.std::__cow_string" }
%"class.std::exception" = type { ptr }
%"struct.std::__cow_string" = type { %union.anon }
%union.anon = type { ptr }
%"struct.YAML::Mark" = type { i32, i32, i32 }
%"class.std::__cxx11::basic_string" = type { %"struct.std::__cxx11::basic_string<char>::_Alloc_hider", i64, %union.anon.0 }
%"struct.std::__cxx11::basic_string<char>::_Alloc_hider" = type { ptr }
%union.anon.0 = type { i64, [8 x i8] }

@_ZTVN4YAML13DeepRecursionE = linkonce_odr unnamed_addr constant { [5 x ptr] } { [5 x ptr] [ptr null, ptr @_ZTIN4YAML13DeepRecursionE, ptr @_ZN4YAML13DeepRecursionD2Ev, ptr @_ZN4YAML13DeepRecursionD0Ev, ptr @_ZNKSt13runtime_error4whatEv] }, comdat, align 8
@_ZTVN4YAML15ParserExceptionE = external unnamed_addr constant { [5 x ptr] }, align 8
@_ZTVN4YAML9ExceptionE = external unnamed_addr constant { [5 x ptr] }, align 8

; Function Attrs: mustprogress uwtable
define linkonce_odr void @_ZN4YAML9ExceptionC2ERKNS_4MarkERKNSt7__cxx1112basic_stringIcSt11char_traitsIcESaIcEEE(ptr noundef nonnull align 8 dereferenceable(64) %this, ptr noundef nonnull align 4 dereferenceable(12) %mark_, ptr noundef nonnull align 8 dereferenceable(32) %msg_) unnamed_addr #0 comdat align 2 personality ptr @__gxx_personality_v0 {
entry:
  %this.addr = alloca ptr, align 8
  %mark_.addr = alloca ptr, align 8
  %msg_.addr = alloca ptr, align 8
  %ref.tmp = alloca %"class.std::__cxx11::basic_string", align 8
  %exn.slot = alloca ptr, align 8
  %ehselector.slot = alloca i32, align 4
  store ptr %this, ptr %this.addr, align 8
  store ptr %mark_, ptr %mark_.addr, align 8
  store ptr %msg_, ptr %msg_.addr, align 8
  %this1 = load ptr, ptr %this.addr, align 8
  %0 = load ptr, ptr %mark_.addr, align 8
  %1 = load ptr, ptr %msg_.addr, align 8
  call void @_ZN4YAML9Exception10build_whatERKNS_4MarkERKNSt7__cxx1112basic_stringIcSt11char_traitsIcESaIcEEE(ptr sret(%"class.std::__cxx11::basic_string") align 8 %ref.tmp, ptr noundef nonnull align 4 dereferenceable(12) %0, ptr noundef nonnull align 8 dereferenceable(32) %1)
  invoke void @_ZNSt13runtime_errorC2ERKNSt7__cxx1112basic_stringIcSt11char_traitsIcESaIcEEE(ptr noundef nonnull align 8 dereferenceable(16) %this1, ptr noundef nonnull align 8 dereferenceable(32) %ref.tmp)
          to label %invoke.cont unwind label %lpad

invoke.cont:                                      ; preds = %entry
  call void @_ZNSt7__cxx1112basic_stringIcSt11char_traitsIcESaIcEED1Ev(ptr noundef nonnull align 8 dereferenceable(32) %ref.tmp) #6
  store ptr getelementptr inbounds ({ [5 x ptr] }, ptr @_ZTVN4YAML9ExceptionE, i32 0, i32 0, i32 2), ptr %this1, align 8
  %mark = getelementptr inbounds %"class.YAML::Exception", ptr %this1, i32 0, i32 1
  %2 = load ptr, ptr %mark_.addr, align 8
  call void @llvm.memcpy.p0.p0.i64(ptr align 8 %mark, ptr align 4 %2, i64 12, i1 false)
  %msg = getelementptr inbounds %"class.YAML::Exception", ptr %this1, i32 0, i32 2
  %3 = load ptr, ptr %msg_.addr, align 8
  invoke void @_ZNSt7__cxx1112basic_stringIcSt11char_traitsIcESaIcEEC1ERKS4_(ptr noundef nonnull align 8 dereferenceable(32) %msg, ptr noundef nonnull align 8 dereferenceable(32) %3)
          to label %invoke.cont3 unwind label %lpad2

invoke.cont3:                                     ; preds = %invoke.cont
  ret void

lpad:                                             ; preds = %entry
  %4 = landingpad { ptr, i32 }
          cleanup
  %5 = extractvalue { ptr, i32 } %4, 0
  store ptr %5, ptr %exn.slot, align 8
  %6 = extractvalue { ptr, i32 } %4, 1
  store i32 %6, ptr %ehselector.slot, align 4
  call void @_ZNSt7__cxx1112basic_stringIcSt11char_traitsIcESaIcEED1Ev(ptr noundef nonnull align 8 dereferenceable(32) %ref.tmp) #6
  br label %eh.resume

lpad2:                                            ; preds = %invoke.cont
  %7 = landingpad { ptr, i32 }
          cleanup
  %8 = extractvalue { ptr, i32 } %7, 0
  store ptr %8, ptr %exn.slot, align 8
  %9 = extractvalue { ptr, i32 } %7, 1
  store i32 %9, ptr %ehselector.slot, align 4
  call void @_ZNSt13runtime_errorD2Ev(ptr noundef nonnull align 8 dereferenceable(16) %this1) #6
  br label %eh.resume

eh.resume:                                        ; preds = %lpad2, %lpad
  %exn = load ptr, ptr %exn.slot, align 8
  %sel = load i32, ptr %ehselector.slot, align 4
  %lpad.val = insertvalue { ptr, i32 } poison, ptr %exn, 0
  %lpad.val4 = insertvalue { ptr, i32 } %lpad.val, i32 %sel, 1
  resume { ptr, i32 } %lpad.val4
}

; Function Attrs: mustprogress uwtable
define linkonce_odr void @_ZN4YAML15ParserExceptionC2ERKNS_4MarkERKNSt7__cxx1112basic_stringIcSt11char_traitsIcESaIcEEE(ptr noundef nonnull align 8 dereferenceable(64) %this, ptr noundef nonnull align 4 dereferenceable(12) %mark_, ptr noundef nonnull align 8 dereferenceable(32) %msg_) unnamed_addr #0 comdat align 2 {
entry:
  %this.addr = alloca ptr, align 8
  %mark_.addr = alloca ptr, align 8
  %msg_.addr = alloca ptr, align 8
  store ptr %this, ptr %this.addr, align 8
  store ptr %mark_, ptr %mark_.addr, align 8
  store ptr %msg_, ptr %msg_.addr, align 8
  %this1 = load ptr, ptr %this.addr, align 8
  %0 = load ptr, ptr %mark_.addr, align 8
  %1 = load ptr, ptr %msg_.addr, align 8
  call void @_ZN4YAML9ExceptionC2ERKNS_4MarkERKNSt7__cxx1112basic_stringIcSt11char_traitsIcESaIcEEE(ptr noundef nonnull align 8 dereferenceable(64) %this1, ptr noundef nonnull align 4 dereferenceable(12) %0, ptr noundef nonnull align 8 dereferenceable(32) %1)
  store ptr getelementptr inbounds ({ [5 x ptr] }, ptr @_ZTVN4YAML15ParserExceptionE, i32 0, i32 0, i32 2), ptr %this1, align 8
  ret void
}

; Function Attrs: mustprogress uwtable
define void @_ZN4YAML13DeepRecursionC2EiRKNS_4MarkERKNSt7__cxx1112basic_stringIcSt11char_traitsIcESaIcEEE(ptr noundef nonnull align 8 dereferenceable(68) %this, i32 noundef %depth, ptr noundef nonnull align 4 dereferenceable(12) %mark_, ptr noundef nonnull align 8 dereferenceable(32) %msg_) unnamed_addr #0 align 2 {
entry:
  %this.addr = alloca ptr, align 8
  %depth.addr = alloca i32, align 4
  %mark_.addr = alloca ptr, align 8
  %msg_.addr = alloca ptr, align 8
  store ptr %this, ptr %this.addr, align 8
  store i32 %depth, ptr %depth.addr, align 4
  store ptr %mark_, ptr %mark_.addr, align 8
  store ptr %msg_, ptr %msg_.addr, align 8
  %this1 = load ptr, ptr %this.addr, align 8
  %0 = load ptr, ptr %mark_.addr, align 8
  %1 = load ptr, ptr %msg_.addr, align 8
  call void @_ZN4YAML15ParserExceptionC2ERKNS_4MarkERKNSt7__cxx1112basic_stringIcSt11char_traitsIcESaIcEEE(ptr noundef nonnull align 8 dereferenceable(64) %this1, ptr noundef nonnull align 4 dereferenceable(12) %0, ptr noundef nonnull align 8 dereferenceable(32) %1)
  store ptr getelementptr inbounds ({ [5 x ptr] }, ptr @_ZTVN4YAML13DeepRecursionE, i32 0, i32 0, i32 2), ptr %this1, align 8
  %m_depth = getelementptr inbounds %"class.YAML::DeepRecursion", ptr %this1, i32 0, i32 1
  %2 = load i32, ptr %depth.addr, align 4
  store i32 %2, ptr %m_depth, align 8
  ret void
}