; Function Attrs: mustprogress uwtable
define void @_ZN4YAML13DeepRecursionC2EiRKNS_4MarkERKNSt7__cxx1112basic_stringIcSt11char_traitsIcESaIcEEE(ptr noundef nonnull align 8 dereferenceable(68) %this, i32 noundef %depth, ptr noundef nonnull align 4 dereferenceable(12) %mark_, ptr noundef nonnull align 8 dereferenceable(32) %msg_) unnamed_addr #0 align 2 personality ptr @__gxx_personality_v0 {
entry:
  %ref.tmp.i.i = alloca %"class.std::__cxx11::basic_string", align 8
  call void @llvm.lifetime.start.p0(i64 32, ptr nonnull %ref.tmp.i.i)
  call void @_ZN4YAML9Exception10build_whatERKNS_4MarkERKNSt7__cxx1112basic_stringIcSt11char_traitsIcESaIcEEE(ptr nonnull sret(%"class.std::__cxx11::basic_string") align 8 %ref.tmp.i.i, ptr noundef nonnull align 4 dereferenceable(12) %mark_, ptr noundef nonnull align 8 dereferenceable(32) %msg_)
  invoke void @_ZNSt13runtime_errorC2ERKNSt7__cxx1112basic_stringIcSt11char_traitsIcESaIcEEE(ptr noundef nonnull align 8 dereferenceable(16) %this, ptr noundef nonnull align 8 dereferenceable(32) %ref.tmp.i.i)
          to label %invoke.cont.i.i unwind label %lpad.i.i

invoke.cont.i.i:                                  ; preds = %entry
  call void @_ZNSt7__cxx1112basic_stringIcSt11char_traitsIcESaIcEED1Ev(ptr noundef nonnull align 8 dereferenceable(32) %ref.tmp.i.i) #7
  store ptr getelementptr inbounds ({ [5 x ptr] }, ptr @_ZTVN4YAML9ExceptionE, i64 0, i32 0, i64 2), ptr %this, align 8
  %mark.i.i = getelementptr inbounds i8, ptr %this, i64 16
  call void @llvm.memcpy.p0.p0.i64(ptr noundef nonnull align 8 dereferenceable(12) %mark.i.i, ptr noundef nonnull align 4 dereferenceable(12) %mark_, i64 12, i1 false)
  %msg.i.i = getelementptr inbounds i8, ptr %this, i64 32
  invoke void @_ZNSt7__cxx1112basic_stringIcSt11char_traitsIcESaIcEEC1ERKS4_(ptr noundef nonnull align 8 dereferenceable(32) %msg.i.i, ptr noundef nonnull align 8 dereferenceable(32) %msg_)
          to label %_ZN4YAML15ParserExceptionC2ERKNS_4MarkERKNSt7__cxx1112basic_stringIcSt11char_traitsIcESaIcEEE.exit unwind label %lpad2.i.i

lpad.i.i:                                         ; preds = %entry
  %0 = landingpad { ptr, i32 }
          cleanup
  call void @_ZNSt7__cxx1112basic_stringIcSt11char_traitsIcESaIcEED1Ev(ptr noundef nonnull align 8 dereferenceable(32) %ref.tmp.i.i) #7
  br label %eh.resume.i.i

lpad2.i.i:                                        ; preds = %invoke.cont.i.i
  %1 = landingpad { ptr, i32 }
          cleanup
  call void @_ZNSt13runtime_errorD2Ev(ptr noundef nonnull align 8 dereferenceable(16) %this) #7
  br label %eh.resume.i.i

eh.resume.i.i:                                    ; preds = %lpad2.i.i, %lpad.i.i
  %.pn.i.i = phi { ptr, i32 } [ %1, %lpad2.i.i ], [ %0, %lpad.i.i ]
  resume { ptr, i32 } %.pn.i.i

_ZN4YAML15ParserExceptionC2ERKNS_4MarkERKNSt7__cxx1112basic_stringIcSt11char_traitsIcESaIcEEE.exit: ; preds = %invoke.cont.i.i
  call void @llvm.lifetime.end.p0(i64 32, ptr nonnull %ref.tmp.i.i)
  store ptr getelementptr inbounds ({ [5 x ptr] }, ptr @_ZTVN4YAML13DeepRecursionE, i64 0, i32 0, i64 2), ptr %this, align 8
  %m_depth = getelementptr inbounds i8, ptr %this, i64 64
  store i32 %depth, ptr %m_depth, align 8
  ret void
}